target datalayout = "e-m:e-p270:32:32-p271:32:32-p272:64:64-i64:64-i128:128-f80:128-n8:16:32:64-S128"
target triple = "x86_64-pc-linux-gnu"

%struct.Wln_Ret_t_ = type { ptr, %struct.Vec_Int_t_, %struct.Vec_Int_t_, %struct.Vec_Int_t_, %struct.Vec_Int_t_, %struct.Vec_Int_t_, %struct.Vec_Int_t_, %struct.Vec_Int_t_, %struct.Vec_Int_t_, %struct.Vec_Int_t_, %struct.Vec_Int_t_, i32, i32 }
%struct.Vec_Int_t_ = type { i32, i32, ptr }
%struct.Wln_Ntk_t_ = type { ptr, ptr, i32, %struct.Vec_Int_t_, %struct.Vec_Int_t_, %struct.Vec_Int_t_, %struct.Vec_Int_t_, ptr, %struct.Vec_Int_t_, ptr, %struct.Vec_Int_t_, %struct.Vec_Int_t_, ptr, %struct.Vec_Str_t_, i32, %struct.Vec_Int_t_, %struct.Vec_Int_t_, %struct.Vec_Int_t_, %struct.Vec_Int_t_, %struct.Vec_Int_t_, %struct.Vec_Int_t_, %struct.Vec_Int_t_, %struct.Vec_Int_t_, ptr, [99 x i32], [99 x i32] }
%struct.Vec_Str_t_ = type { i32, i32, ptr }

; Function Attrs: inlinehint nounwind uwtable
define internal i32 @Vec_IntEntry(ptr noundef %0, i32 noundef %1) #2 {
  %3 = alloca ptr, align 8
  %4 = alloca i32, align 4
  store ptr %0, ptr %3, align 8, !tbaa !29
  store i32 %1, ptr %4, align 4, !tbaa !8
  %5 = load ptr, ptr %3, align 8, !tbaa !29
  %6 = getelementptr inbounds nuw %struct.Vec_Int_t_, ptr %5, i32 0, i32 2
  %7 = load ptr, ptr %6, align 8, !tbaa !31
  %8 = load i32, ptr %4, align 4, !tbaa !8
  %9 = sext i32 %8 to i64
  %10 = getelementptr inbounds i32, ptr %7, i64 %9
  %11 = load i32, ptr %10, align 4, !tbaa !8
  ret i32 %11
}

; Function Attrs: nounwind uwtable
define ptr @Wln_RetHeadToTail(ptr noundef %0, ptr noundef %1) #0 {
  %3 = alloca ptr, align 8
  %4 = alloca ptr, align 8
  %5 = alloca ptr, align 8
  %6 = alloca ptr, align 8
  %7 = alloca i32, align 4
  store ptr %0, ptr %4, align 8, !tbaa !3
  store ptr %1, ptr %5, align 8, !tbaa !15
  call void @llvm.lifetime.start.p0(i64 8, ptr %6) #11
  %8 = load ptr, ptr %4, align 8, !tbaa !3
  %9 = getelementptr inbounds nuw %struct.Wln_Ret_t_, ptr %8, i32 0, i32 3
  %10 = load ptr, ptr %5, align 8, !tbaa !15
  %11 = getelementptr inbounds i32, ptr %10, i64 0
  %12 = load i32, ptr %11, align 4, !tbaa !8
  %13 = call ptr @Vec_IntEntryP(ptr noundef %9, i32 noundef %12)
  store ptr %13, ptr %6, align 8, !tbaa !15
  %14 = load ptr, ptr %6, align 8, !tbaa !15
  %15 = getelementptr inbounds i32, ptr %14, i64 0
  %16 = load i32, ptr %15, align 4, !tbaa !8
  %17 = icmp eq i32 %16, 0
  br i1 %17, label %18, label %20

18:                                               ; preds = %2
  %19 = load ptr, ptr %5, align 8, !tbaa !15
  store ptr %19, ptr %3, align 8
  store i32 1, ptr %7, align 4
  br label %24

20:                                               ; preds = %2
  %21 = load ptr, ptr %4, align 8, !tbaa !3
  %22 = load ptr, ptr %6, align 8, !tbaa !15
  %23 = call ptr @Wln_RetHeadToTail(ptr noundef %21, ptr noundef %22)
  store ptr %23, ptr %3, align 8
  store i32 1, ptr %7, align 4
  br label %24

24:                                               ; preds = %20, %18
  call void @llvm.lifetime.end.p0(i64 8, ptr %6) #11
  %25 = load ptr, ptr %3, align 8
  ret ptr %25
}

; Function Attrs: inlinehint nounwind uwtable
define internal ptr @Vec_IntEntryP(ptr noundef %0, i32 noundef %1) #2 {
  %3 = alloca ptr, align 8
  %4 = alloca i32, align 4
  store ptr %0, ptr %3, align 8, !tbaa !29
  store i32 %1, ptr %4, align 4, !tbaa !8
  %5 = load ptr, ptr %3, align 8, !tbaa !29
  %6 = getelementptr inbounds nuw %struct.Vec_Int_t_, ptr %5, i32 0, i32 2
  %7 = load ptr, ptr %6, align 8, !tbaa !31
  %8 = load i32, ptr %4, align 4, !tbaa !8
  %9 = sext i32 %8 to i64
  %10 = getelementptr inbounds i32, ptr %7, i64 %9
  ret ptr %10
}

; Function Attrs: inlinehint nounwind uwtable
define internal ptr @Wln_RetFanouts(ptr noundef %0, i32 noundef %1) #2 {
  %3 = alloca ptr, align 8
  %4 = alloca i32, align 4
  store ptr %0, ptr %3, align 8, !tbaa !3
  store i32 %1, ptr %4, align 4, !tbaa !8
  %5 = load ptr, ptr %3, align 8, !tbaa !3
  %6 = getelementptr inbounds nuw %struct.Wln_Ret_t_, ptr %5, i32 0, i32 2
  %7 = load ptr, ptr %3, align 8, !tbaa !3
  %8 = getelementptr inbounds nuw %struct.Wln_Ret_t_, ptr %7, i32 0, i32 2
  %9 = load i32, ptr %4, align 4, !tbaa !8
  %10 = call i32 @Vec_IntEntry(ptr noundef %8, i32 noundef %9)
  %11 = call ptr @Vec_IntEntryP(ptr noundef %6, i32 noundef %10)
  ret ptr %11
}

; Function Attrs: inlinehint nounwind uwtable
define internal i32 @Wln_ObjRefs(ptr noundef %0, i32 noundef %1) #2 {
  %3 = alloca ptr, align 8
  %4 = alloca i32, align 4
  store ptr %0, ptr %3, align 8, !tbaa !18
  store i32 %1, ptr %4, align 4, !tbaa !8
  %5 = load ptr, ptr %3, align 8, !tbaa !18
  %6 = getelementptr inbounds nuw %struct.Wln_Ntk_t_, ptr %5, i32 0, i32 19
  %7 = load i32, ptr %4, align 4, !tbaa !8
  %8 = call i32 @Vec_IntEntry(ptr noundef %6, i32 noundef %7)
  ret i32 %8
}

; Function Attrs: nounwind uwtable
define i32 @Wln_RetRemoveOneFanout(ptr noundef %0, i32 noundef %1) #0 {
  %3 = alloca ptr, align 8
  %4 = alloca i32, align 4
  %5 = alloca i32, align 4
  %6 = alloca i32, align 4
  %7 = alloca ptr, align 8
  %8 = alloca i32, align 4
  %9 = alloca i32, align 4
  store ptr %0, ptr %3, align 8, !tbaa !3
  store i32 %1, ptr %4, align 4, !tbaa !8
  call void @llvm.lifetime.start.p0(i64 4, ptr %5) #11
  call void @llvm.lifetime.start.p0(i64 4, ptr %6) #11
  call void @llvm.lifetime.start.p0(i64 8, ptr %7) #11
  call void @llvm.lifetime.start.p0(i64 4, ptr %8) #11
  call void @llvm.lifetime.start.p0(i64 4, ptr %9) #11
  store i32 -1, ptr %9, align 4, !tbaa !8
  store i32 0, ptr %5, align 4, !tbaa !8
  br label %10

10:                                               ; preds = %66, %2
  %11 = load i32, ptr %5, align 4, !tbaa !8
  %12 = load ptr, ptr %3, align 8, !tbaa !3
  %13 = getelementptr inbounds nuw %struct.Wln_Ret_t_, ptr %12, i32 0, i32 0
  %14 = load ptr, ptr %13, align 8, !tbaa !10
  %15 = load i32, ptr %4, align 4, !tbaa !8
  %16 = call i32 @Wln_ObjRefs(ptr noundef %14, i32 noundef %15)
  %17 = icmp slt i32 %11, %16
  br i1 %17, label %18, label %41

18:                                               ; preds = %10
  %19 = load ptr, ptr %3, align 8, !tbaa !3
  %20 = load i32, ptr %4, align 4, !tbaa !8
  %21 = call ptr @Wln_RetFanouts(ptr noundef %19, i32 noundef %20)
  %22 = load i32, ptr %5, align 4, !tbaa !8
  %23 = mul nsw i32 2, %22
  %24 = sext i32 %23 to i64
  %25 = getelementptr inbounds i32, ptr %21, i64 %24
  %26 = load i32, ptr %25, align 4, !tbaa !8
  store i32 %26, ptr %6, align 4, !tbaa !8
  br i1 true, label %27, label %41

27:                                               ; preds = %18
  %28 = load ptr, ptr %3, align 8, !tbaa !3
  %29 = getelementptr inbounds nuw %struct.Wln_Ret_t_, ptr %28, i32 0, i32 1
  %30 = load ptr, ptr %3, align 8, !tbaa !3
  %31 = load i32, ptr %4, align 4, !tbaa !8
  %32 = call ptr @Wln_RetFanouts(ptr noundef %30, i32 noundef %31)
  %33 = load i32, ptr %5, align 4, !tbaa !8
  %34 = mul nsw i32 2, %33
  %35 = add nsw i32 %34, 1
  %36 = sext i32 %35 to i64
  %37 = getelementptr inbounds i32, ptr %32, i64 %36
  %38 = load i32, ptr %37, align 4, !tbaa !8
  %39 = call ptr @Vec_IntEntryP(ptr noundef %29, i32 noundef %38)
  store ptr %39, ptr %7, align 8, !tbaa !15
  %40 = icmp ne ptr %39, null
  br label %41

41:                                               ; preds = %27, %18, %10
  %42 = phi i1 [ false, %18 ], [ false, %10 ], [ %40, %27 ]
  br i1 %42, label %43, label %69

43:                                               ; preds = %41
  %44 = load i32, ptr %6, align 4, !tbaa !8
  %45 = icmp ne i32 %44, 0
  br i1 %45, label %47, label %46

46:                                               ; preds = %43
  br label %65

47:                                               ; preds = %43
  %48 = load ptr, ptr %3, align 8, !tbaa !3
  %49 = load ptr, ptr %7, align 8, !tbaa !15
  %50 = call ptr @Wln_RetHeadToTail(ptr noundef %48, ptr noundef %49)
  store ptr %50, ptr %7, align 8, !tbaa !15
  %51 = load ptr, ptr %3, align 8, !tbaa !3
  %52 = getelementptr inbounds nuw %struct.Wln_Ret_t_, ptr %51, i32 0, i32 3
  %53 = load ptr, ptr %7, align 8, !tbaa !15
  %54 = getelementptr inbounds i32, ptr %53, i64 0
  %55 = load i32, ptr %54, align 4, !tbaa !8
  %56 = add nsw i32 %55, 1
  %57 = call i32 @Vec_IntEntry(ptr noundef %52, i32 noundef %56)
  store i32 %57, ptr %8, align 4, !tbaa !8
  %58 = load ptr, ptr %7, align 8, !tbaa !15
  %59 = getelementptr inbounds i32, ptr %58, i64 0
  store i32 0, ptr %59, align 4, !tbaa !8
  %60 = load i32, ptr %9, align 4, !tbaa !8
  %61 = icmp eq i32 %60, -1
  br i1 %61, label %62, label %64

62:                                               ; preds = %47
  %63 = load i32, ptr %8, align 4, !tbaa !8
  store i32 %63, ptr %9, align 4, !tbaa !8
  br label %64

64:                                               ; preds = %62, %47
  br label %65

65:                                               ; preds = %64, %46
  br label %66

66:                                               ; preds = %65
  %67 = load i32, ptr %5, align 4, !tbaa !8
  %68 = add nsw i32 %67, 1
  store i32 %68, ptr %5, align 4, !tbaa !8
  br label %10, !llvm.loop !99

69:                                               ; preds = %41
  %70 = load i32, ptr %9, align 4, !tbaa !8
  call void @llvm.lifetime.end.p0(i64 4, ptr %9) #11
  call void @llvm.lifetime.end.p0(i64 4, ptr %8) #11
  call void @llvm.lifetime.end.p0(i64 8, ptr %7) #11
  call void @llvm.lifetime.end.p0(i64 4, ptr %6) #11
  call void @llvm.lifetime.end.p0(i64 4, ptr %5) #11
  ret i32 %70
}