; Function Attrs: nofree norecurse nosync nounwind memory(readwrite, inaccessiblemem: none) uwtable
define i32 @Wln_RetRemoveOneFanout(ptr noundef readonly captures(none) %0, i32 noundef %1) local_unnamed_addr #14 {
  %3 = load ptr, ptr %0, align 8, !tbaa !3
  %4 = getelementptr i8, ptr %3, i64 256
  %.val23 = load ptr, ptr %4, align 8, !tbaa !12
  %5 = sext i32 %1 to i64
  %6 = getelementptr inbounds i32, ptr %.val23, i64 %5
  %7 = load i32, ptr %6, align 4, !tbaa !13
  %8 = icmp sgt i32 %7, 0
  br i1 %8, label %.lr.ph, label %.critedge

.lr.ph:                                           ; preds = %2
  %9 = getelementptr i8, ptr %0, i64 32
  %.val25 = load ptr, ptr %9, align 8, !tbaa !12
  %10 = getelementptr inbounds i32, ptr %.val25, i64 %5
  %11 = getelementptr i8, ptr %0, i64 16
  %.val22 = load ptr, ptr %11, align 8, !tbaa !12
  %.not = icmp eq ptr %.val22, null
  %12 = getelementptr i8, ptr %0, i64 48
  br i1 %.not, label %.critedge, label %.lr.ph.split

.lr.ph.split:                                     ; preds = %.lr.ph, %37
  %13 = phi i32 [ %38, %37 ], [ %7, %.lr.ph ]
  %indvars.iv = phi i64 [ %indvars.iv.next, %37 ], [ 0, %.lr.ph ]
  %.027 = phi i32 [ %.1, %37 ], [ -1, %.lr.ph ]
  %14 = load i32, ptr %10, align 4, !tbaa !13
  %15 = sext i32 %14 to i64
  %16 = getelementptr inbounds i32, ptr %.val25, i64 %15
  %17 = shl nuw nsw i64 %indvars.iv, 1
  %18 = getelementptr inbounds nuw i32, ptr %16, i64 %17
  %19 = load i32, ptr %18, align 4, !tbaa !13
  %.not21 = icmp eq i32 %19, 0
  br i1 %.not21, label %37, label %20

20:                                               ; preds = %.lr.ph.split
  %21 = or disjoint i64 %17, 1
  %22 = getelementptr inbounds nuw i32, ptr %16, i64 %21
  %23 = load i32, ptr %22, align 4, !tbaa !13
  %24 = sext i32 %23 to i64
  %25 = getelementptr inbounds i32, ptr %.val22, i64 %24
  %.val.i = load ptr, ptr %12, align 8, !tbaa !12
  %.pre.i = load i32, ptr %25, align 4, !tbaa !13
  br label %tailrecurse.i

tailrecurse.i:                                    ; preds = %tailrecurse.i, %20
  %26 = phi i32 [ %.pre.i, %20 ], [ %29, %tailrecurse.i ]
  %.tr7.i = phi ptr [ %25, %20 ], [ %28, %tailrecurse.i ]
  %27 = sext i32 %26 to i64
  %28 = getelementptr inbounds i32, ptr %.val.i, i64 %27
  %29 = load i32, ptr %28, align 4, !tbaa !13
  %30 = icmp eq i32 %29, 0
  br i1 %30, label %Wln_RetHeadToTail.exit, label %tailrecurse.i

Wln_RetHeadToTail.exit:                           ; preds = %tailrecurse.i
  %31 = load i32, ptr %.tr7.i, align 4, !tbaa !13
  %32 = sext i32 %31 to i64
  %33 = getelementptr i32, ptr %.val.i, i64 %32
  %34 = getelementptr i8, ptr %33, i64 4
  %35 = load i32, ptr %34, align 4, !tbaa !13
  store i32 0, ptr %.tr7.i, align 4, !tbaa !13
  %36 = icmp eq i32 %.027, -1
  %spec.select = select i1 %36, i32 %35, i32 %.027
  %.pre = load i32, ptr %6, align 4, !tbaa !13
  br label %37

37:                                               ; preds = %Wln_RetHeadToTail.exit, %.lr.ph.split
  %38 = phi i32 [ %13, %.lr.ph.split ], [ %.pre, %Wln_RetHeadToTail.exit ]
  %.1 = phi i32 [ %.027, %.lr.ph.split ], [ %spec.select, %Wln_RetHeadToTail.exit ]
  %indvars.iv.next = add nuw nsw i64 %indvars.iv, 1
  %39 = sext i32 %38 to i64
  %40 = icmp slt i64 %indvars.iv.next, %39
  br i1 %40, label %.lr.ph.split, label %.critedge, !llvm.loop !95

.critedge:                                        ; preds = %37, %.lr.ph, %2
  %.0.lcssa = phi i32 [ -1, %2 ], [ -1, %.lr.ph ], [ %.1, %37 ]
  ret i32 %.0.lcssa
}